target datalayout = "e-m:e-p270:32:32-p271:32:32-p272:64:64-i64:64-i128:128-f80:128-n8:16:32:64-S128"
target triple = "x86_64-pc-linux-gnu"

%struct.slurmctld_lock_t = type { i32, i32, i32, i32, i32 }
%struct.job_record = type { i32, ptr, ptr, ptr, ptr, i16, i32, i32, i32, ptr, i32, ptr, ptr, i16, ptr, double, i64, ptr, ptr, ptr, ptr, ptr, ptr, i32, ptr, i32, i64, i64, i32, i32, ptr, i16, i64, i64, i8, i32, ptr, ptr, ptr, ptr, ptr, ptr, ptr, ptr, i32, ptr, ptr, i32, ptr, i32, ptr, i32, ptr, i32, ptr, ptr, ptr, ptr, ptr, ptr, i32, i16, i64, ptr, ptr, ptr, ptr, %struct.acct_policy_limit_set_t, i16, ptr, ptr, ptr, ptr, ptr, i32, ptr, ptr, ptr, ptr, ptr, i32, i32, ptr, ptr, ptr, i16, ptr, ptr, i8, ptr, ptr, i64, i64, i8, i32, i32, i8, i32, ptr, i32, i64, i32, ptr, ptr, ptr, i8, i16, i64, i32, ptr, ptr, ptr, ptr, ptr, i16, i32, ptr, ptr, ptr, ptr, i32, ptr, i32, i16, i64, ptr, i32, i32, ptr, i64, ptr, ptr, i64, i32, i32, i64, i32, i32, ptr, ptr, ptr, ptr, ptr, ptr, ptr, ptr, ptr, ptr, ptr, ptr, i32, ptr, i16, i16, i16, i16, ptr, i32, i32, i8, i64 }
%struct.acct_policy_limit_set_t = type { i16, i16, ptr }

@.str = private unnamed_addr constant [21 x i8] c"%s: missing JobId=%u\00", align 1
@__const.prep_epilog_slurmctld_callback.job_write_lock = private unnamed_addr constant %struct.slurmctld_lock_t { i32 0, i32 2, i32 2, i32 0, i32 0 }, align 4
@__func__.prep_epilog_slurmctld_callback = private unnamed_addr constant [31 x i8] c"prep_epilog_slurmctld_callback\00", align 1
@.str.8 = private unnamed_addr constant [36 x i8] c"epilog_slurmctld JobId=%u timed out\00", align 1
@.str.9 = private unnamed_addr constant [44 x i8] c"%s: still %u async epilogs left to complete\00", align 1

; Function Attrs: nounwind uwtable
define dso_local void @prep_epilog_slurmctld_callback(i32 noundef %0, i32 noundef %1, i1 noundef zeroext %2) #0 {
  %4 = alloca i32, align 4
  %5 = alloca i32, align 4
  %6 = alloca i8, align 1
  %7 = alloca %struct.slurmctld_lock_t, align 8
  %8 = alloca ptr, align 8
  %9 = alloca i32, align 4
  store i32 %0, ptr %4, align 4
  store i32 %1, ptr %5, align 4
  %10 = zext i1 %2 to i8
  store i8 %10, ptr %6, align 1
  call void @llvm.lifetime.start.p0(i64 20, ptr %7) #4
  call void @llvm.memcpy.p0.p0.i64(ptr align 4 %7, ptr align 4 @__const.prep_epilog_slurmctld_callback.job_write_lock, i64 20, i1 false)
  call void @llvm.lifetime.start.p0(i64 8, ptr %8) #4
  call void @lock_slurmctld(ptr noundef byval(%struct.slurmctld_lock_t) align 8 %7)
  %11 = load i32, ptr %5, align 4
  %12 = call ptr @find_job_record(i32 noundef %11)
  store ptr %12, ptr %8, align 8
  %13 = icmp ne ptr %12, null
  br i1 %13, label %17, label %14

14:                                               ; preds = %3
  %15 = load i32, ptr %5, align 4
  %16 = call i32 (ptr, ...) @error(ptr noundef @.str, ptr noundef @__func__.prep_epilog_slurmctld_callback, i32 noundef %15)
  call void @unlock_slurmctld(ptr noundef byval(%struct.slurmctld_lock_t) align 8 %7)
  store i32 1, ptr %9, align 4
  br label %64

17:                                               ; preds = %3
  %18 = load i8, ptr %6, align 1, !range !8, !noundef !9
  %19 = trunc i8 %18 to i1
  br i1 %19, label %20, label %23

20:                                               ; preds = %17
  %21 = load i32, ptr %5, align 4
  %22 = call i32 (ptr, ...) @error(ptr noundef @.str.8, i32 noundef %21)
  br label %23

23:                                               ; preds = %20, %17
  %24 = load ptr, ptr %8, align 8
  %25 = getelementptr inbounds nuw %struct.job_record, ptr %24, i32 0, i32 94
  %26 = load i32, ptr %25, align 4
  %27 = icmp ne i32 %26, 0
  br i1 %27, label %28, label %33

28:                                               ; preds = %23
  %29 = load ptr, ptr %8, align 8
  %30 = getelementptr inbounds nuw %struct.job_record, ptr %29, i32 0, i32 94
  %31 = load i32, ptr %30, align 4
  %32 = add i32 %31, -1
  store i32 %32, ptr %30, align 4
  br label %33

33:                                               ; preds = %28, %23
  %34 = load ptr, ptr %8, align 8
  %35 = getelementptr inbounds nuw %struct.job_record, ptr %34, i32 0, i32 94
  %36 = load i32, ptr %35, align 4
  %37 = icmp ne i32 %36, 0
  br i1 %37, label %38, label %52

38:                                               ; preds = %33
  br label %39

39:                                               ; preds = %38
  br label %40

40:                                               ; preds = %39
  %41 = call i32 @get_log_level()
  %42 = icmp sge i32 %41, 6
  br i1 %42, label %43, label %47

43:                                               ; preds = %40
  %44 = load ptr, ptr %8, align 8
  %45 = getelementptr inbounds nuw %struct.job_record, ptr %44, i32 0, i32 94
  %46 = load i32, ptr %45, align 4
  call void (i32, ptr, ...) @log_var(i32 noundef 6, ptr noundef @.str.9, ptr noundef @__func__.prep_epilog_slurmctld_callback, i32 noundef %46)
  br label %47

47:                                               ; preds = %43, %40
  br label %48

48:                                               ; preds = %47
  br label %49

49:                                               ; preds = %48
  br label %50

50:                                               ; preds = %49
  br label %51

51:                                               ; preds = %50
  call void @unlock_slurmctld(ptr noundef byval(%struct.slurmctld_lock_t) align 8 %7)
  store i32 1, ptr %9, align 4
  br label %64

52:                                               ; preds = %33
  %53 = load ptr, ptr %8, align 8
  %54 = getelementptr inbounds nuw %struct.job_record, ptr %53, i32 0, i32 34
  store i8 0, ptr %54, align 8
  %55 = load ptr, ptr %8, align 8
  %56 = getelementptr inbounds nuw %struct.job_record, ptr %55, i32 0, i32 60
  %57 = load i32, ptr %56, align 8
  %58 = zext i32 %57 to i64
  %59 = and i64 %58, 32768
  %60 = icmp ne i64 %59, 0
  br i1 %60, label %61, label %63

61:                                               ; preds = %52
  %62 = load ptr, ptr %8, align 8
  call void @cleanup_completing(ptr noundef %62, i1 noundef zeroext true)
  br label %63

63:                                               ; preds = %61, %52
  call void @unlock_slurmctld(ptr noundef byval(%struct.slurmctld_lock_t) align 8 %7)
  store i32 0, ptr %9, align 4
  br label %64

64:                                               ; preds = %63, %51, %14
  call void @llvm.lifetime.end.p0(i64 8, ptr %8) #4
  call void @llvm.lifetime.end.p0(i64 20, ptr %7) #4
  %65 = load i32, ptr %9, align 4
  switch i32 %65, label %67 [
    i32 0, label %66
    i32 1, label %66
  ]

66:                                               ; preds = %64, %64
  ret void

67:                                               ; preds = %64
  unreachable
}