; Function Attrs: nounwind uwtable
define dso_local void @prep_epilog_slurmctld_callback(i32 noundef %0, i32 noundef %1, i1 noundef zeroext %2) local_unnamed_addr #0 {
  tail call void @lock_slurmctld(ptr noundef nonnull byval(%struct.slurmctld_lock_t) align 8 @__const.prep_epilog_slurmctld_callback.job_write_lock) #2
  %4 = tail call ptr @find_job_record(i32 noundef %1) #2
  %.not = icmp eq ptr %4, null
  br i1 %.not, label %5, label %7

5:                                                ; preds = %3
  %6 = tail call i32 (ptr, ...) @error(ptr noundef nonnull @.str, ptr noundef nonnull @__func__.prep_epilog_slurmctld_callback, i32 noundef %1) #2
  br label %25

7:                                                ; preds = %3
  br i1 %2, label %8, label %10

8:                                                ; preds = %7
  %9 = tail call i32 (ptr, ...) @error(ptr noundef nonnull @.str.8, i32 noundef %1) #2
  br label %10

10:                                               ; preds = %8, %7
  %11 = getelementptr inbounds nuw i8, ptr %4, i64 708
  %12 = load i32, ptr %11, align 4
  %.not11 = icmp eq i32 %12, 0
  br i1 %.not11, label %.thread, label %13

13:                                               ; preds = %10
  %14 = add i32 %12, -1
  store i32 %14, ptr %11, align 4
  %.not12 = icmp eq i32 %14, 0
  br i1 %.not12, label %.thread, label %15

15:                                               ; preds = %13
  %16 = tail call i32 @get_log_level() #2
  %17 = icmp sgt i32 %16, 5
  br i1 %17, label %18, label %25

18:                                               ; preds = %15
  %19 = load i32, ptr %11, align 4
  tail call void (i32, ptr, ...) @log_var(i32 noundef 6, ptr noundef nonnull @.str.9, ptr noundef nonnull @__func__.prep_epilog_slurmctld_callback, i32 noundef %19) #2
  br label %25

.thread:                                          ; preds = %10, %13
  %20 = getelementptr inbounds nuw i8, ptr %4, i64 248
  store i8 0, ptr %20, align 8
  %21 = getelementptr inbounds nuw i8, ptr %4, i64 448
  %22 = load i32, ptr %21, align 8
  %23 = and i32 %22, 32768
  %.not13 = icmp eq i32 %23, 0
  br i1 %.not13, label %25, label %24

24:                                               ; preds = %.thread
  tail call void @cleanup_completing(ptr noundef nonnull %4, i1 noundef zeroext true) #2
  br label %25

25:                                               ; preds = %.thread, %24, %15, %18, %5
  tail call void @unlock_slurmctld(ptr noundef nonnull byval(%struct.slurmctld_lock_t) align 8 @__const.prep_epilog_slurmctld_callback.job_write_lock) #2
  ret void
}